; ModuleID = 'source-C-CXX/61/1162.c'
source_filename = "source-C-CXX/61/1162.c"
target datalayout = "e-m:e-p270:32:32-p271:32:32-p272:64:64-i64:64-f80:128-n8:16:32:64-S128"
target triple = "x86_64-pc-linux-gnu"

; Function Attrs: nounwind sspstrong uwtable
define dso_local i32 @main() local_unnamed_addr #0 {
  %1 = alloca [100 x i8], align 16
  %2 = alloca [100 x i8], align 16
  %3 = getelementptr inbounds [100 x i8], [100 x i8]* %1, i64 0, i64 0
  call void @llvm.lifetime.start.p0i8(i64 100, i8* nonnull %3) #6
  %4 = getelementptr inbounds [100 x i8], [100 x i8]* %2, i64 0, i64 0
  call void @llvm.lifetime.start.p0i8(i64 100, i8* nonnull %4) #6
  call void @llvm.memset.p0i8.i64(i8* noundef nonnull align 16 dereferenceable(100) %4, i8 0, i64 100, i1 false)
  %5 = call i32 (i8*, ...) bitcast (i32 (...)* @gets to i32 (i8*, ...)*)(i8* nonnull %3) #6
  %6 = call i64 @strlen(i8* noundef nonnull %3) #7
  %7 = trunc i64 %6 to i32
  %8 = icmp slt i32 %7, 0
  br i1 %8, label %46, label %9

9:                                                ; preds = %0
  %10 = add i64 %6, 1
  %11 = and i64 %10, 4294967295
  br label %12

12:                                               ; preds = %9, %41
  %13 = phi i64 [ 0, %9 ], [ %44, %41 ]
  %14 = phi i32 [ 0, %9 ], [ %42, %41 ]
  %15 = phi i32 [ 0, %9 ], [ %43, %41 ]
  %16 = getelementptr inbounds [100 x i8], [100 x i8]* %1, i64 0, i64 %13
  %17 = load i8, i8* %16, align 1, !tbaa !5
  %18 = icmp eq i8 %17, 32
  %19 = add nsw i32 %15, 1
  %20 = select i1 %18, i32 %19, i32 %15
  %21 = icmp ne i8 %17, 32
  %22 = icmp eq i32 %20, 0
  %23 = select i1 %21, i1 %22, i1 false
  br i1 %23, label %31, label %24

24:                                               ; preds = %12
  %25 = icmp sgt i32 %20, 0
  br i1 %25, label %26, label %37

26:                                               ; preds = %24
  br i1 %18, label %41, label %27

27:                                               ; preds = %26
  %28 = sext i32 %14 to i64
  %29 = getelementptr inbounds [100 x i8], [100 x i8]* %2, i64 0, i64 %28
  store i8 32, i8* %29, align 1, !tbaa !5
  %30 = add nsw i32 %14, 1
  br label %31

31:                                               ; preds = %12, %27
  %32 = phi i32 [ %30, %27 ], [ %14, %12 ]
  %33 = phi i32 [ 2, %27 ], [ 1, %12 ]
  %34 = sext i32 %32 to i64
  %35 = getelementptr inbounds [100 x i8], [100 x i8]* %2, i64 0, i64 %34
  store i8 %17, i8* %35, align 1, !tbaa !5
  %36 = add nsw i32 %14, %33
  br label %37

37:                                               ; preds = %31, %24
  %38 = phi i32 [ %20, %24 ], [ 0, %31 ]
  %39 = phi i32 [ %14, %24 ], [ %36, %31 ]
  %40 = icmp eq i8 %17, 0
  br i1 %40, label %46, label %41

41:                                               ; preds = %26, %37
  %42 = phi i32 [ %39, %37 ], [ %14, %26 ]
  %43 = phi i32 [ %38, %37 ], [ %19, %26 ]
  %44 = add nuw nsw i64 %13, 1
  %45 = icmp eq i64 %44, %11
  br i1 %45, label %46, label %12, !llvm.loop !8

46:                                               ; preds = %41, %37, %0
  %47 = call i32 @puts(i8* nonnull %4)
  call void @llvm.lifetime.end.p0i8(i64 100, i8* nonnull %4) #6
  call void @llvm.lifetime.end.p0i8(i64 100, i8* nonnull %3) #6
  ret i32 0
}

; Function Attrs: argmemonly mustprogress nofree nosync nounwind willreturn
declare void @llvm.lifetime.start.p0i8(i64 immarg, i8* nocapture) #1

; Function Attrs: argmemonly mustprogress nofree nounwind willreturn writeonly
declare void @llvm.memset.p0i8.i64(i8* nocapture writeonly, i8, i64, i1 immarg) #2

declare i32 @gets(...) local_unnamed_addr #3

; Function Attrs: argmemonly mustprogress nofree nounwind readonly willreturn
declare i64 @strlen(i8* nocapture) local_unnamed_addr #4

; Function Attrs: nofree nounwind
declare noundef i32 @puts(i8* nocapture noundef readonly) local_unnamed_addr #5

; Function Attrs: argmemonly mustprogress nofree nosync nounwind willreturn
declare void @llvm.lifetime.end.p0i8(i64 immarg, i8* nocapture) #1


!llvm.module.flags = !{!0, !1, !2, !3}
!llvm.ident = !{!4}

!0 = !{i32 1, !"wchar_size", i32 4}
!1 = !{i32 7, !"PIC Level", i32 2}
!2 = !{i32 7, !"PIE Level", i32 2}
!3 = !{i32 7, !"uwtable", i32 1}
!4 = !{!"clang version 13.0.0"}
!5 = !{!6, !6, i64 0}
!6 = !{!"omnipotent char", !7, i64 0}
!7 = !{!"Simple C/C++ TBAA"}
!8 = distinct !{!8, !9}
!9 = !{!"llvm.loop.mustprogress"}
